; Function Attrs: mustprogress nounwind uwtable
define dso_local void @_ZN3net15ClientHelloInfoD2Ev(ptr noundef nonnull align 8 dereferenceable(184) %this) unnamed_addr #4 align 2 personality ptr @__gxx_personality_v0 {
entry:
  %reject_reasons = getelementptr inbounds i8, ptr %this, i64 160
  %0 = load ptr, ptr %reject_reasons, align 8
  %tobool.not.i.i.i = icmp eq ptr %0, null
  br i1 %tobool.not.i.i.i, label %_ZNSt6vectorIjSaIjEED2Ev.exit, label %if.then.i.i.i

if.then.i.i.i:                                    ; preds = %entry
  tail call void @_ZdlPv(ptr noundef nonnull %0) #23
  br label %_ZNSt6vectorIjSaIjEED2Ev.exit

_ZNSt6vectorIjSaIjEED2Ev.exit:                    ; preds = %entry, %if.then.i.i.i
  %source_address_tokens = getelementptr inbounds i8, ptr %this, i64 104
  tail call void @_ZN3net19SourceAddressTokensD1Ev(ptr noundef nonnull align 8 dereferenceable(56) %source_address_tokens) #20
  tail call void @_ZN3net9IPAddressD1Ev(ptr noundef nonnull align 8 dereferenceable(24) %this) #20
  ret void
}